; ModuleID = '58/189.c'
source_filename = "58/189.c"
target datalayout = "e-m:e-p270:32:32-p271:32:32-p272:64:64-i64:64-f80:128-n8:16:32:64-S128"
target triple = "x86_64-pc-linux-gnu"

@.str = private unnamed_addr constant [3 x i8] c"%d\00", align 1
@.str.1 = private unnamed_addr constant [3 x i8] c"1\0A\00", align 1
@.str.2 = private unnamed_addr constant [3 x i8] c"0\0A\00", align 1

; Function Attrs: noinline nounwind uwtable
define dso_local i32 @check(i8 signext %0) #0 {
  %2 = alloca i32, align 4
  %3 = alloca i8, align 1
  store i8 %0, i8* %3, align 1
  %4 = load i8, i8* %3, align 1
  %5 = sext i8 %4 to i32
  %6 = sub nsw i32 %5, 97
  %7 = icmp sge i32 %6, 0
  br i1 %7, label %8, label %14

8:                                                ; preds = %1
  %9 = load i8, i8* %3, align 1
  %10 = sext i8 %9 to i32
  %11 = sub nsw i32 %10, 122
  %12 = icmp sle i32 %11, 0
  br i1 %12, label %13, label %14

13:                                               ; preds = %8
  store i32 1, i32* %2, align 4
  br label %32

14:                                               ; preds = %8, %1
  %15 = load i8, i8* %3, align 1
  %16 = sext i8 %15 to i32
  %17 = sub nsw i32 %16, 65
  %18 = icmp sge i32 %17, 0
  br i1 %18, label %19, label %25

19:                                               ; preds = %14
  %20 = load i8, i8* %3, align 1
  %21 = sext i8 %20 to i32
  %22 = sub nsw i32 %21, 90
  %23 = icmp sle i32 %22, 0
  br i1 %23, label %24, label %25

24:                                               ; preds = %19
  store i32 1, i32* %2, align 4
  br label %32

25:                                               ; preds = %19, %14
  %26 = load i8, i8* %3, align 1
  %27 = sext i8 %26 to i32
  %28 = sub nsw i32 %27, 95
  %29 = icmp eq i32 %28, 0
  br i1 %29, label %30, label %31

30:                                               ; preds = %25
  store i32 1, i32* %2, align 4
  br label %32

31:                                               ; preds = %25
  store i32 0, i32* %2, align 4
  br label %32

32:                                               ; preds = %31, %30, %24, %13
  %33 = load i32, i32* %2, align 4
  ret i32 %33
}

; Function Attrs: noinline nounwind uwtable
define dso_local i32 @check1(i8 signext %0) #0 {
  %2 = alloca i32, align 4
  %3 = alloca i8, align 1
  store i8 %0, i8* %3, align 1
  %4 = load i8, i8* %3, align 1
  %5 = sext i8 %4 to i32
  %6 = sub nsw i32 %5, 97
  %7 = icmp sge i32 %6, 0
  br i1 %7, label %8, label %14

8:                                                ; preds = %1
  %9 = load i8, i8* %3, align 1
  %10 = sext i8 %9 to i32
  %11 = sub nsw i32 %10, 122
  %12 = icmp sle i32 %11, 0
  br i1 %12, label %13, label %14

13:                                               ; preds = %8
  store i32 1, i32* %2, align 4
  br label %43

14:                                               ; preds = %8, %1
  %15 = load i8, i8* %3, align 1
  %16 = sext i8 %15 to i32
  %17 = sub nsw i32 %16, 65
  %18 = icmp sge i32 %17, 0
  br i1 %18, label %19, label %25

19:                                               ; preds = %14
  %20 = load i8, i8* %3, align 1
  %21 = sext i8 %20 to i32
  %22 = sub nsw i32 %21, 90
  %23 = icmp sle i32 %22, 0
  br i1 %23, label %24, label %25

24:                                               ; preds = %19
  store i32 1, i32* %2, align 4
  br label %43

25:                                               ; preds = %19, %14
  %26 = load i8, i8* %3, align 1
  %27 = sext i8 %26 to i32
  %28 = sub nsw i32 %27, 95
  %29 = icmp eq i32 %28, 0
  br i1 %29, label %30, label %31

30:                                               ; preds = %25
  store i32 1, i32* %2, align 4
  br label %43

31:                                               ; preds = %25
  %32 = load i8, i8* %3, align 1
  %33 = sext i8 %32 to i32
  %34 = sub nsw i32 %33, 48
  %35 = icmp sge i32 %34, 0
  br i1 %35, label %36, label %42

36:                                               ; preds = %31
  %37 = load i8, i8* %3, align 1
  %38 = sext i8 %37 to i32
  %39 = sub nsw i32 %38, 57
  %40 = icmp sle i32 %39, 0
  br i1 %40, label %41, label %42

41:                                               ; preds = %36
  store i32 1, i32* %2, align 4
  br label %43

42:                                               ; preds = %36, %31
  store i32 0, i32* %2, align 4
  br label %43

43:                                               ; preds = %42, %41, %30, %24, %13
  %44 = load i32, i32* %2, align 4
  ret i32 %44
}

; Function Attrs: noinline nounwind uwtable
define dso_local i32 @check2(i8* %0, i32 %1) #0 {
  %3 = alloca i32, align 4
  %4 = alloca i8*, align 8
  %5 = alloca i32, align 4
  %6 = alloca i32, align 4
  %7 = alloca i32, align 4
  store i8* %0, i8** %4, align 8
  store i32 %1, i32* %5, align 4
  store i32 1, i32* %6, align 4
  store i32 0, i32* %7, align 4
  br label %8

8:                                                ; preds = %22, %2
  %9 = load i32, i32* %6, align 4
  %10 = load i32, i32* %5, align 4
  %11 = icmp slt i32 %9, %10
  br i1 %11, label %12, label %25

12:                                               ; preds = %8
  %13 = load i8*, i8** %4, align 8
  %14 = load i32, i32* %6, align 4
  %15 = sext i32 %14 to i64
  %16 = getelementptr inbounds i8, i8* %13, i64 %15
  %17 = load i8, i8* %16, align 1
  %18 = call i32 @check1(i8 signext %17)
  %19 = icmp ne i32 %18, 1
  br i1 %19, label %20, label %21

20:                                               ; preds = %12
  store i32 0, i32* %3, align 4
  br label %26

21:                                               ; preds = %12
  br label %22

22:                                               ; preds = %21
  %23 = load i32, i32* %6, align 4
  %24 = add nsw i32 %23, 1
  store i32 %24, i32* %6, align 4
  br label %8

25:                                               ; preds = %8
  store i32 1, i32* %3, align 4
  br label %26

26:                                               ; preds = %25, %20
  %27 = load i32, i32* %3, align 4
  ret i32 %27
}

; Function Attrs: noinline nounwind uwtable
define dso_local i32 @main() #0 {
  %1 = alloca i32, align 4
  %2 = alloca i32, align 4
  %3 = alloca [200 x [100 x i8]], align 16
  %4 = alloca i32, align 4
  %5 = alloca i32, align 4
  store i32 0, i32* %1, align 4
  %6 = call i32 (i8*, ...) @__isoc99_scanf(i8* getelementptr inbounds ([3 x i8], [3 x i8]* @.str, i64 0, i64 0), i32* %2)
  %7 = call i32 @getchar()
  store i32 1, i32* %4, align 4
  br label %8

8:                                                ; preds = %44, %0
  %9 = load i32, i32* %4, align 4
  %10 = load i32, i32* %2, align 4
  %11 = icmp sle i32 %9, %10
  br i1 %11, label %12, label %47

12:                                               ; preds = %8
  %13 = load i32, i32* %4, align 4
  %14 = sext i32 %13 to i64
  %15 = getelementptr inbounds [200 x [100 x i8]], [200 x [100 x i8]]* %3, i64 0, i64 %14
  %16 = getelementptr inbounds [100 x i8], [100 x i8]* %15, i64 0, i64 0
  %17 = call i32 (i8*, ...) bitcast (i32 (...)* @gets to i32 (i8*, ...)*)(i8* %16)
  %18 = load i32, i32* %4, align 4
  %19 = sext i32 %18 to i64
  %20 = getelementptr inbounds [200 x [100 x i8]], [200 x [100 x i8]]* %3, i64 0, i64 %19
  %21 = getelementptr inbounds [100 x i8], [100 x i8]* %20, i64 0, i64 0
  %22 = call i64 @strlen(i8* %21) #3
  %23 = trunc i64 %22 to i32
  store i32 %23, i32* %5, align 4
  %24 = load i32, i32* %4, align 4
  %25 = sext i32 %24 to i64
  %26 = getelementptr inbounds [200 x [100 x i8]], [200 x [100 x i8]]* %3, i64 0, i64 %25
  %27 = getelementptr inbounds [100 x i8], [100 x i8]* %26, i64 0, i64 0
  %28 = load i8, i8* %27, align 4
  %29 = call i32 @check(i8 signext %28)
  %30 = icmp ne i32 %29, 0
  br i1 %30, label %31, label %41

31:                                               ; preds = %12
  %32 = load i32, i32* %4, align 4
  %33 = sext i32 %32 to i64
  %34 = getelementptr inbounds [200 x [100 x i8]], [200 x [100 x i8]]* %3, i64 0, i64 %33
  %35 = getelementptr inbounds [100 x i8], [100 x i8]* %34, i64 0, i64 0
  %36 = load i32, i32* %5, align 4
  %37 = call i32 @check2(i8* %35, i32 %36)
  %38 = icmp ne i32 %37, 0
  br i1 %38, label %39, label %41

39:                                               ; preds = %31
  %40 = call i32 (i8*, ...) @printf(i8* getelementptr inbounds ([3 x i8], [3 x i8]* @.str.1, i64 0, i64 0))
  br label %43

41:                                               ; preds = %31, %12
  %42 = call i32 (i8*, ...) @printf(i8* getelementptr inbounds ([3 x i8], [3 x i8]* @.str.2, i64 0, i64 0))
  br label %43

43:                                               ; preds = %41, %39
  br label %44

44:                                               ; preds = %43
  %45 = load i32, i32* %4, align 4
  %46 = add nsw i32 %45, 1
  store i32 %46, i32* %4, align 4
  br label %8

47:                                               ; preds = %8
  %48 = load i32, i32* %1, align 4
  ret i32 %48
}

declare dso_local i32 @__isoc99_scanf(i8*, ...) #1

declare dso_local i32 @getchar() #1

declare dso_local i32 @gets(...) #1

; Function Attrs: nounwind readonly
declare dso_local i64 @strlen(i8*) #2

declare dso_local i32 @printf(i8*, ...) #1


!llvm.module.flags = !{!0}
!llvm.ident = !{!1}

!0 = !{i32 1, !"wchar_size", i32 4}
!1 = !{!"clang version 10.0.0-4ubuntu1 "}
